target datalayout = "e-m:e-p270:32:32-p271:32:32-p272:64:64-i64:64-i128:128-f80:128-n8:16:32:64-S128"
target triple = "x86_64-pc-linux-gnu"

%struct.H5C_class_t = type { i32, ptr, i32, i32, ptr, ptr, ptr, ptr, ptr, ptr, ptr, ptr, ptr, ptr }
%struct.H5EA_sblock_t = type { %struct.H5C_cache_entry_t, i64, ptr, ptr, ptr, i64, i64, i8, ptr, ptr, i32, i64, i64, i64, i64, i64 }
%struct.H5C_cache_entry_t = type { ptr, i64, i64, ptr, i8, ptr, i8, i8, i8, i8, i32, i8, i8, i8, i8, i8, i32, ptr, i32, i32, i32, i32, i32, i8, i8, ptr, ptr, ptr, ptr, ptr, ptr, i8, i32, i8, i64, ptr, i64, i64, i32, i8, i32, i32, i8, ptr, ptr, ptr }
%struct.H5EA_hdr_t = type { %struct.H5C_cache_entry_t, %struct.H5EA_create_t, i64, %struct.H5EA_stat_t, %struct.anon.1, i64, i64, i64, ptr, i64, i8, i64, i64, i8, i64, ptr, i64, ptr, i8, ptr, ptr }
%struct.H5EA_create_t = type { ptr, i8, i8, i8, i8, i8, i8 }
%struct.H5EA_stat_t = type { %struct.anon, %struct.anon.0 }
%struct.anon = type { i64, i64, i64 }
%struct.anon.0 = type { i64, i64, i64, i64, i64, i64 }
%struct.anon.1 = type { i64, ptr }

@H5EA_init_g = external global i8, align 1
@H5_libterm_g = external global i8, align 1
@.str.1 = private unnamed_addr constant [104 x i8] c"generated/home/dtcxzyw/WorkSpace/Projects/compilers/llvm-opt-benchmark/bench/hdf5/hdf5/src/H5EAsblock.c\00", align 1
@H5E_EARRAY_g = external global i64, align 8
@H5AC_EARRAY_SBLOCK = external constant [1 x %struct.H5C_class_t], align 16
@.str.11 = private unnamed_addr constant [47 x i8] c"unable to release extensible array super block\00", align 1
@H5E_CANTPROTECT_g = external global i64, align 8
@.str.12 = private unnamed_addr constant [63 x i8] c"unable to protect extensible array super block, address = %llu\00", align 1
@H5E_CANTUNPROTECT_g = external global i64, align 8
@.str.13 = private unnamed_addr constant [65 x i8] c"unable to unprotect extensible array super block, address = %llu\00", align 1
@__func__.H5EA__sblock_unprotect = private unnamed_addr constant [23 x i8] c"H5EA__sblock_unprotect\00", align 1
@__func__.H5EA__sblock_delete = private unnamed_addr constant [20 x i8] c"H5EA__sblock_delete\00", align 1
@H5E_CANTDELETE_g = external global i64, align 8
@.str.14 = private unnamed_addr constant [45 x i8] c"unable to delete extensible array data block\00", align 1

; Function Attrs: nounwind uwtable
define i32 @H5EA__sblock_unprotect(ptr noundef %0, i32 noundef %1) #0 {
  %3 = alloca ptr, align 8
  %4 = alloca i32, align 4
  %5 = alloca i32, align 4
  %6 = alloca i8, align 1
  store ptr %0, ptr %3, align 8, !tbaa !12
  store i32 %1, ptr %4, align 4, !tbaa !10
  call void @llvm.lifetime.start.p0(i64 4, ptr %5) #4
  store i32 0, ptr %5, align 4, !tbaa !10
  call void @llvm.lifetime.start.p0(i64 1, ptr %6) #4
  store i8 0, ptr %6, align 1, !tbaa !14
  %7 = load i8, ptr @H5EA_init_g, align 1, !tbaa !14, !range !16, !noundef !17
  %8 = trunc i8 %7 to i1
  br i1 %8, label %13, label %9

9:                                                ; preds = %2
  %10 = load i8, ptr @H5_libterm_g, align 1, !tbaa !14, !range !16, !noundef !17
  %11 = trunc i8 %10 to i1
  %12 = xor i1 %11, true
  br label %13

13:                                               ; preds = %9, %2
  %14 = phi i1 [ true, %2 ], [ %12, %9 ]
  %15 = xor i1 %14, true
  %16 = xor i1 %15, true
  %17 = zext i1 %16 to i32
  %18 = sext i32 %17 to i64
  %19 = call i64 @llvm.expect.i64(i64 %18, i64 1)
  %20 = icmp ne i64 %19, 0
  br i1 %20, label %21, label %58

21:                                               ; preds = %13
  %22 = load ptr, ptr %3, align 8, !tbaa !12
  %23 = getelementptr inbounds nuw %struct.H5EA_sblock_t, ptr %22, i32 0, i32 4
  %24 = load ptr, ptr %23, align 8, !tbaa !20
  %25 = getelementptr inbounds nuw %struct.H5EA_hdr_t, ptr %24, i32 0, i32 8
  %26 = load ptr, ptr %25, align 8, !tbaa !64
  %27 = load ptr, ptr %3, align 8, !tbaa !12
  %28 = getelementptr inbounds nuw %struct.H5EA_sblock_t, ptr %27, i32 0, i32 5
  %29 = load i64, ptr %28, align 8, !tbaa !32
  %30 = load ptr, ptr %3, align 8, !tbaa !12
  %31 = load i32, ptr %4, align 4, !tbaa !10
  %32 = call i32 @H5AC_unprotect(ptr noundef %26, ptr noundef @H5AC_EARRAY_SBLOCK, i64 noundef %29, ptr noundef %30, i32 noundef %31)
  %33 = icmp slt i32 %32, 0
  br i1 %33, label %34, label %56

34:                                               ; preds = %21
  br label %35

35:                                               ; preds = %34
  br label %36

36:                                               ; preds = %35
  br label %37

37:                                               ; preds = %36
  %38 = load i64, ptr @H5E_EARRAY_g, align 8, !tbaa !18
  %39 = load i64, ptr @H5E_CANTUNPROTECT_g, align 8, !tbaa !18
  %40 = load ptr, ptr %3, align 8, !tbaa !12
  %41 = getelementptr inbounds nuw %struct.H5EA_sblock_t, ptr %40, i32 0, i32 5
  %42 = load i64, ptr %41, align 8, !tbaa !32
  %43 = call i32 (ptr, ptr, i32, i64, i64, ptr, ...) @H5E_printf_stack(ptr noundef @.str.1, ptr noundef @__func__.H5EA__sblock_unprotect, i32 noundef 340, i64 noundef %38, i64 noundef %39, ptr noundef @.str.13, i64 noundef %42)
  br label %44

44:                                               ; preds = %37
  br label %45

45:                                               ; preds = %44
  store i8 1, ptr %6, align 1, !tbaa !14
  %46 = load i8, ptr %6, align 1, !tbaa !14, !range !16, !noundef !17
  %47 = trunc i8 %46 to i1
  %48 = zext i1 %47 to i8
  store i8 %48, ptr %6, align 1, !tbaa !14
  br label %49

49:                                               ; preds = %45
  br label %50

50:                                               ; preds = %49
  br label %51

51:                                               ; preds = %50
  store i32 -1, ptr %5, align 4, !tbaa !10
  br label %57

52:                                               ; No predecessors!
  br label %53

53:                                               ; preds = %52
  br label %54

54:                                               ; preds = %53
  br label %55

55:                                               ; preds = %54
  br label %56

56:                                               ; preds = %55, %21
  br label %57

57:                                               ; preds = %56, %51
  br label %58

58:                                               ; preds = %57, %13
  %59 = load i32, ptr %5, align 4, !tbaa !10
  call void @llvm.lifetime.end.p0(i64 1, ptr %6) #4
  call void @llvm.lifetime.end.p0(i64 4, ptr %5) #4
  ret i32 %59
}

; Function Attrs: nounwind uwtable
define i32 @H5EA__sblock_delete(ptr noundef %0, ptr noundef %1, i64 noundef %2, i32 noundef %3) #0 {
  %5 = alloca ptr, align 8
  %6 = alloca ptr, align 8
  %7 = alloca i64, align 8
  %8 = alloca i32, align 4
  %9 = alloca ptr, align 8
  %10 = alloca i64, align 8
  %11 = alloca i32, align 4
  %12 = alloca i8, align 1
  store ptr %0, ptr %5, align 8, !tbaa !3
  store ptr %1, ptr %6, align 8, !tbaa !8
  store i64 %2, ptr %7, align 8, !tbaa !18
  store i32 %3, ptr %8, align 4, !tbaa !10
  call void @llvm.lifetime.start.p0(i64 8, ptr %9) #4
  store ptr null, ptr %9, align 8, !tbaa !12
  call void @llvm.lifetime.start.p0(i64 8, ptr %10) #4
  call void @llvm.lifetime.start.p0(i64 4, ptr %11) #4
  store i32 0, ptr %11, align 4, !tbaa !10
  call void @llvm.lifetime.start.p0(i64 1, ptr %12) #4
  store i8 0, ptr %12, align 1, !tbaa !14
  %13 = load i8, ptr @H5EA_init_g, align 1, !tbaa !14, !range !16, !noundef !17
  %14 = trunc i8 %13 to i1
  br i1 %14, label %19, label %15

15:                                               ; preds = %4
  %16 = load i8, ptr @H5_libterm_g, align 1, !tbaa !14, !range !16, !noundef !17
  %17 = trunc i8 %16 to i1
  %18 = xor i1 %17, true
  br label %19

19:                                               ; preds = %15, %4
  %20 = phi i1 [ true, %4 ], [ %18, %15 ]
  %21 = xor i1 %20, true
  %22 = xor i1 %21, true
  %23 = zext i1 %22 to i32
  %24 = sext i32 %23 to i64
  %25 = call i64 @llvm.expect.i64(i64 %24, i64 1)
  %26 = icmp ne i64 %25, 0
  br i1 %26, label %27, label %137

27:                                               ; preds = %19
  %28 = load ptr, ptr %5, align 8, !tbaa !3
  %29 = load ptr, ptr %6, align 8, !tbaa !8
  %30 = load i64, ptr %7, align 8, !tbaa !18
  %31 = load i32, ptr %8, align 4, !tbaa !10
  %32 = call ptr @H5EA__sblock_protect(ptr noundef %28, ptr noundef %29, i64 noundef %30, i32 noundef %31, i32 noundef 0)
  store ptr %32, ptr %9, align 8, !tbaa !12
  %33 = icmp eq ptr null, %32
  br i1 %33, label %34, label %54

34:                                               ; preds = %27
  br label %35

35:                                               ; preds = %34
  br label %36

36:                                               ; preds = %35
  br label %37

37:                                               ; preds = %36
  %38 = load i64, ptr @H5E_EARRAY_g, align 8, !tbaa !18
  %39 = load i64, ptr @H5E_CANTPROTECT_g, align 8, !tbaa !18
  %40 = load i64, ptr %7, align 8, !tbaa !18
  %41 = call i32 (ptr, ptr, i32, i64, i64, ptr, ...) @H5E_printf_stack(ptr noundef @.str.1, ptr noundef @__func__.H5EA__sblock_delete, i32 noundef 372, i64 noundef %38, i64 noundef %39, ptr noundef @.str.12, i64 noundef %40)
  br label %42

42:                                               ; preds = %37
  br label %43

43:                                               ; preds = %42
  store i8 1, ptr %12, align 1, !tbaa !14
  %44 = load i8, ptr %12, align 1, !tbaa !14, !range !16, !noundef !17
  %45 = trunc i8 %44 to i1
  %46 = zext i1 %45 to i8
  store i8 %46, ptr %12, align 1, !tbaa !14
  br label %47

47:                                               ; preds = %43
  br label %48

48:                                               ; preds = %47
  br label %49

49:                                               ; preds = %48
  store i32 -1, ptr %11, align 4, !tbaa !10
  br label %113

50:                                               ; No predecessors!
  br label %51

51:                                               ; preds = %50
  br label %52

52:                                               ; preds = %51
  br label %53

53:                                               ; preds = %52
  br label %54

54:                                               ; preds = %53, %27
  store i64 0, ptr %10, align 8, !tbaa !18
  br label %55

55:                                               ; preds = %109, %54
  %56 = load i64, ptr %10, align 8, !tbaa !18
  %57 = load ptr, ptr %9, align 8, !tbaa !12
  %58 = getelementptr inbounds nuw %struct.H5EA_sblock_t, ptr %57, i32 0, i32 11
  %59 = load i64, ptr %58, align 8, !tbaa !47
  %60 = icmp ult i64 %56, %59
  br i1 %60, label %61, label %112

61:                                               ; preds = %55
  %62 = load ptr, ptr %9, align 8, !tbaa !12
  %63 = getelementptr inbounds nuw %struct.H5EA_sblock_t, ptr %62, i32 0, i32 2
  %64 = load ptr, ptr %63, align 8, !tbaa !50
  %65 = load i64, ptr %10, align 8, !tbaa !18
  %66 = getelementptr inbounds nuw i64, ptr %64, i64 %65
  %67 = load i64, ptr %66, align 8, !tbaa !18
  %68 = icmp ne i64 %67, -1
  br i1 %68, label %69, label %108

69:                                               ; preds = %61
  %70 = load ptr, ptr %5, align 8, !tbaa !3
  %71 = load ptr, ptr %9, align 8, !tbaa !12
  %72 = load ptr, ptr %9, align 8, !tbaa !12
  %73 = getelementptr inbounds nuw %struct.H5EA_sblock_t, ptr %72, i32 0, i32 2
  %74 = load ptr, ptr %73, align 8, !tbaa !50
  %75 = load i64, ptr %10, align 8, !tbaa !18
  %76 = getelementptr inbounds nuw i64, ptr %74, i64 %75
  %77 = load i64, ptr %76, align 8, !tbaa !18
  %78 = load ptr, ptr %9, align 8, !tbaa !12
  %79 = getelementptr inbounds nuw %struct.H5EA_sblock_t, ptr %78, i32 0, i32 12
  %80 = load i64, ptr %79, align 8, !tbaa !49
  %81 = call i32 @H5EA__dblock_delete(ptr noundef %70, ptr noundef %71, i64 noundef %77, i64 noundef %80)
  %82 = icmp slt i32 %81, 0
  br i1 %82, label %83, label %102

83:                                               ; preds = %69
  br label %84

84:                                               ; preds = %83
  br label %85

85:                                               ; preds = %84
  br label %86

86:                                               ; preds = %85
  %87 = load i64, ptr @H5E_EARRAY_g, align 8, !tbaa !18
  %88 = load i64, ptr @H5E_CANTDELETE_g, align 8, !tbaa !18
  %89 = call i32 (ptr, ptr, i32, i64, i64, ptr, ...) @H5E_printf_stack(ptr noundef @.str.1, ptr noundef @__func__.H5EA__sblock_delete, i32 noundef 380, i64 noundef %87, i64 noundef %88, ptr noundef @.str.14)
  br label %90

90:                                               ; preds = %86
  br label %91

91:                                               ; preds = %90
  store i8 1, ptr %12, align 1, !tbaa !14
  %92 = load i8, ptr %12, align 1, !tbaa !14, !range !16, !noundef !17
  %93 = trunc i8 %92 to i1
  %94 = zext i1 %93 to i8
  store i8 %94, ptr %12, align 1, !tbaa !14
  br label %95

95:                                               ; preds = %91
  br label %96

96:                                               ; preds = %95
  br label %97

97:                                               ; preds = %96
  store i32 -1, ptr %11, align 4, !tbaa !10
  br label %113

98:                                               ; No predecessors!
  br label %99

99:                                               ; preds = %98
  br label %100

100:                                              ; preds = %99
  br label %101

101:                                              ; preds = %100
  br label %102

102:                                              ; preds = %101, %69
  %103 = load ptr, ptr %9, align 8, !tbaa !12
  %104 = getelementptr inbounds nuw %struct.H5EA_sblock_t, ptr %103, i32 0, i32 2
  %105 = load ptr, ptr %104, align 8, !tbaa !50
  %106 = load i64, ptr %10, align 8, !tbaa !18
  %107 = getelementptr inbounds nuw i64, ptr %105, i64 %106
  store i64 -1, ptr %107, align 8, !tbaa !18
  br label %108

108:                                              ; preds = %102, %61
  br label %109

109:                                              ; preds = %108
  %110 = load i64, ptr %10, align 8, !tbaa !18
  %111 = add i64 %110, 1
  store i64 %111, ptr %10, align 8, !tbaa !18
  br label %55, !llvm.loop !74

112:                                              ; preds = %55
  br label %113

113:                                              ; preds = %112, %97, %49
  %114 = load ptr, ptr %9, align 8, !tbaa !12
  %115 = icmp ne ptr %114, null
  br i1 %115, label %116, label %136

116:                                              ; preds = %113
  %117 = load ptr, ptr %9, align 8, !tbaa !12
  %118 = call i32 @H5EA__sblock_unprotect(ptr noundef %117, i32 noundef 259)
  %119 = icmp slt i32 %118, 0
  br i1 %119, label %120, label %136

120:                                              ; preds = %116
  br label %121

121:                                              ; preds = %120
  br label %122

122:                                              ; preds = %121
  br label %123

123:                                              ; preds = %122
  %124 = load i64, ptr @H5E_EARRAY_g, align 8, !tbaa !18
  %125 = load i64, ptr @H5E_CANTUNPROTECT_g, align 8, !tbaa !18
  %126 = call i32 (ptr, ptr, i32, i64, i64, ptr, ...) @H5E_printf_stack(ptr noundef @.str.1, ptr noundef @__func__.H5EA__sblock_delete, i32 noundef 389, i64 noundef %124, i64 noundef %125, ptr noundef @.str.11)
  br label %127

127:                                              ; preds = %123
  br label %128

128:                                              ; preds = %127
  store i8 1, ptr %12, align 1, !tbaa !14
  %129 = load i8, ptr %12, align 1, !tbaa !14, !range !16, !noundef !17
  %130 = trunc i8 %129 to i1
  %131 = zext i1 %130 to i8
  store i8 %131, ptr %12, align 1, !tbaa !14
  br label %132

132:                                              ; preds = %128
  br label %133

133:                                              ; preds = %132
  store i32 -1, ptr %11, align 4, !tbaa !10
  br label %134

134:                                              ; preds = %133
  br label %135

135:                                              ; preds = %134
  br label %136

136:                                              ; preds = %135, %116, %113
  br label %137

137:                                              ; preds = %136, %19
  %138 = load i32, ptr %11, align 4, !tbaa !10
  call void @llvm.lifetime.end.p0(i64 1, ptr %12) #4
  call void @llvm.lifetime.end.p0(i64 4, ptr %11) #4
  call void @llvm.lifetime.end.p0(i64 8, ptr %10) #4
  call void @llvm.lifetime.end.p0(i64 8, ptr %9) #4
  ret i32 %138
}