; Function Attrs: nounwind uwtable
define range(i32 -1, 1) i32 @H5EA__sblock_delete(ptr noundef %0, ptr noundef %1, i64 noundef %2, i32 noundef %3) local_unnamed_addr #0 {
  %5 = load i8, ptr @H5EA_init_g, align 1, !tbaa !3, !range !7, !noundef !8
  %6 = trunc nuw i8 %5 to i1
  %7 = load i8, ptr @H5_libterm_g, align 1, !range !7
  %8 = trunc nuw i8 %7 to i1
  %9 = xor i1 %8, true
  %10 = select i1 %6, i1 true, i1 %9
  br i1 %10, label %11, label %H5EA__sblock_unprotect.exit.thread, !prof !9

11:                                               ; preds = %4
  %12 = tail call ptr @H5EA__sblock_protect(ptr noundef %0, ptr noundef %1, i64 noundef %2, i32 noundef %3, i32 noundef 0)
  %13 = icmp eq ptr %12, null
  br i1 %13, label %39, label %.preheader

.preheader:                                       ; preds = %11
  %14 = getelementptr inbounds nuw i8, ptr %12, i64 328
  %15 = load i64, ptr %14, align 8, !tbaa !43
  %.not31 = icmp eq i64 %15, 0
  br i1 %.not31, label %.loopexit, label %.lr.ph

.lr.ph:                                           ; preds = %.preheader
  %16 = getelementptr inbounds nuw i8, ptr %12, i64 256
  %17 = getelementptr inbounds nuw i8, ptr %12, i64 336
  %.pre = load ptr, ptr %16, align 8, !tbaa !46
  br label %18

18:                                               ; preds = %.lr.ph, %34
  %19 = phi i64 [ %15, %.lr.ph ], [ %35, %34 ]
  %20 = phi ptr [ %.pre, %.lr.ph ], [ %36, %34 ]
  %.02230 = phi i64 [ 0, %.lr.ph ], [ %37, %34 ]
  %21 = getelementptr inbounds nuw i64, ptr %20, i64 %.02230
  %22 = load i64, ptr %21, align 8, !tbaa !10
  %.not = icmp eq i64 %22, -1
  br i1 %.not, label %34, label %23

23:                                               ; preds = %18
  %24 = load i64, ptr %17, align 8, !tbaa !45
  %25 = tail call i32 @H5EA__dblock_delete(ptr noundef %0, ptr noundef nonnull %12, i64 noundef %22, i64 noundef %24) #3
  %26 = icmp slt i32 %25, 0
  br i1 %26, label %27, label %31

27:                                               ; preds = %23
  %28 = load i64, ptr @H5E_EARRAY_g, align 8, !tbaa !10
  %29 = load i64, ptr @H5E_CANTDELETE_g, align 8, !tbaa !10
  %30 = tail call i32 (ptr, ptr, i32, i64, i64, ptr, ...) @H5E_printf_stack(ptr noundef nonnull @.str.1, ptr noundef nonnull @__func__.H5EA__sblock_delete, i32 noundef 380, i64 noundef %28, i64 noundef %29, ptr noundef nonnull @.str.14) #3
  br label %.loopexit

31:                                               ; preds = %23
  %32 = load ptr, ptr %16, align 8, !tbaa !46
  %33 = getelementptr inbounds nuw i64, ptr %32, i64 %.02230
  store i64 -1, ptr %33, align 8, !tbaa !10
  %.pre32 = load i64, ptr %14, align 8, !tbaa !43
  br label %34

34:                                               ; preds = %18, %31
  %35 = phi i64 [ %19, %18 ], [ %.pre32, %31 ]
  %36 = phi ptr [ %20, %18 ], [ %32, %31 ]
  %37 = add nuw i64 %.02230, 1
  %38 = icmp ult i64 %37, %35
  br i1 %38, label %18, label %.loopexit, !llvm.loop !68

39:                                               ; preds = %11
  %40 = load i64, ptr @H5E_EARRAY_g, align 8, !tbaa !10
  %41 = load i64, ptr @H5E_CANTPROTECT_g, align 8, !tbaa !10
  %42 = tail call i32 (ptr, ptr, i32, i64, i64, ptr, ...) @H5E_printf_stack(ptr noundef nonnull @.str.1, ptr noundef nonnull @__func__.H5EA__sblock_delete, i32 noundef 372, i64 noundef %40, i64 noundef %41, ptr noundef nonnull @.str.12, i64 noundef %2) #3
  br label %H5EA__sblock_unprotect.exit.thread

.loopexit:                                        ; preds = %34, %.preheader, %27
  %.1.ph = phi i32 [ -1, %27 ], [ 0, %.preheader ], [ 0, %34 ]
  %43 = load i8, ptr @H5EA_init_g, align 1, !tbaa !3, !range !7, !noundef !8
  %44 = trunc nuw i8 %43 to i1
  %45 = load i8, ptr @H5_libterm_g, align 1, !range !7
  %46 = trunc nuw i8 %45 to i1
  %47 = xor i1 %46, true
  %48 = select i1 %44, i1 true, i1 %47
  br i1 %48, label %49, label %H5EA__sblock_unprotect.exit.thread, !prof !9

49:                                               ; preds = %.loopexit
  %50 = getelementptr inbounds nuw i8, ptr %12, i64 272
  %51 = load ptr, ptr %50, align 8, !tbaa !12
  %52 = getelementptr inbounds nuw i8, ptr %51, i64 384
  %53 = load ptr, ptr %52, align 8, !tbaa !58
  %54 = getelementptr inbounds nuw i8, ptr %12, i64 280
  %55 = load i64, ptr %54, align 8, !tbaa !28
  %56 = tail call i32 @H5AC_unprotect(ptr noundef %53, ptr noundef nonnull @H5AC_EARRAY_SBLOCK, i64 noundef %55, ptr noundef nonnull %12, i32 noundef 259) #3
  %57 = icmp slt i32 %56, 0
  br i1 %57, label %58, label %H5EA__sblock_unprotect.exit.thread

58:                                               ; preds = %49
  %59 = load i64, ptr @H5E_EARRAY_g, align 8, !tbaa !10
  %60 = load i64, ptr @H5E_CANTUNPROTECT_g, align 8, !tbaa !10
  %61 = load i64, ptr %54, align 8, !tbaa !28
  %62 = tail call i32 (ptr, ptr, i32, i64, i64, ptr, ...) @H5E_printf_stack(ptr noundef nonnull @.str.1, ptr noundef nonnull @__func__.H5EA__sblock_unprotect, i32 noundef 340, i64 noundef %59, i64 noundef %60, ptr noundef nonnull @.str.13, i64 noundef %61) #3
  %63 = load i64, ptr @H5E_EARRAY_g, align 8, !tbaa !10
  %64 = load i64, ptr @H5E_CANTUNPROTECT_g, align 8, !tbaa !10
  %65 = tail call i32 (ptr, ptr, i32, i64, i64, ptr, ...) @H5E_printf_stack(ptr noundef nonnull @.str.1, ptr noundef nonnull @__func__.H5EA__sblock_delete, i32 noundef 389, i64 noundef %63, i64 noundef %64, ptr noundef nonnull @.str.11) #3
  br label %H5EA__sblock_unprotect.exit.thread

H5EA__sblock_unprotect.exit.thread:               ; preds = %.loopexit, %49, %39, %58, %4
  %.0 = phi i32 [ -1, %58 ], [ -1, %39 ], [ 0, %4 ], [ %.1.ph, %49 ], [ %.1.ph, %.loopexit ]
  ret i32 %.0
}